#include <math.h>
#include <stdio.h>
#include <stdlib.h>
#include <string.h>

void main()
{
	char str[11],substr[4];
	int i,k=0,n;
	char a;
	while(scanf("%s %s",str,substr)==2)
	{
		n=strlen(str);
		a=str[0];
		for(i=0;;i++)//??ASCII???????
		{
			if(str[i]=='\0')
			break;
			if(str[i]>a)
			{
				a=str[i];
				k=i;
			}
		}
		for(i=0;i<=k;i++)
			printf("%c",str[i]);
		for(i=0;i<=2;i++)
			printf("%c",substr[i]);
		for(i=k+1;i<n;i++)
			printf("%c",str[i]);
		printf("\n");
	}
	
}


