; ModuleID = 'source-C-CXX/19/238.c'
source_filename = "source-C-CXX/19/238.c"
target datalayout = "e-m:e-p270:32:32-p271:32:32-p272:64:64-i64:64-f80:128-n8:16:32:64-S128"
target triple = "x86_64-pc-linux-gnu"

@.str = private unnamed_addr constant [6 x i8] c"%s %s\00", align 1

; Function Attrs: nofree nounwind sspstrong uwtable
define dso_local void @main() local_unnamed_addr #0 {
  %1 = alloca [11 x i8], align 1
  %2 = alloca [4 x i8], align 1
  %3 = getelementptr inbounds [11 x i8], [11 x i8]* %1, i64 0, i64 0
  call void @llvm.lifetime.start.p0i8(i64 11, i8* nonnull %3) #5
  %4 = getelementptr inbounds [4 x i8], [4 x i8]* %2, i64 0, i64 0
  call void @llvm.lifetime.start.p0i8(i64 4, i8* nonnull %4) #5
  %5 = call i32 (i8*, ...) @__isoc99_scanf(i8* getelementptr inbounds ([6 x i8], [6 x i8]* @.str, i64 0, i64 0), i8* nonnull %3, i8* nonnull %4)
  %6 = icmp eq i32 %5, 2
  br i1 %6, label %7, label %72

7:                                                ; preds = %0
  %8 = getelementptr inbounds [4 x i8], [4 x i8]* %2, i64 0, i64 1
  %9 = getelementptr inbounds [4 x i8], [4 x i8]* %2, i64 0, i64 2
  br label %10

10:                                               ; preds = %7, %68
  %11 = phi i32 [ %17, %68 ], [ 0, %7 ]
  %12 = call i64 @strlen(i8* noundef nonnull %3) #6
  %13 = trunc i64 %12 to i32
  %14 = load i8, i8* %3, align 1, !tbaa !5
  %15 = icmp eq i8 %14, 0
  br i1 %15, label %16, label %25

16:                                               ; preds = %25, %10
  %17 = phi i32 [ %11, %10 ], [ %32, %25 ]
  %18 = icmp slt i32 %17, 0
  %19 = add i32 %17, 1
  br i1 %18, label %38, label %20

20:                                               ; preds = %16
  %21 = zext i32 %19 to i64
  %22 = sext i8 %14 to i32
  %23 = call i32 @putchar(i32 %22)
  %24 = icmp eq i32 %17, 0
  br i1 %24, label %38, label %49, !llvm.loop !8

25:                                               ; preds = %10, %25
  %26 = phi i64 [ %34, %25 ], [ 0, %10 ]
  %27 = phi i8 [ %36, %25 ], [ %14, %10 ]
  %28 = phi i8 [ %33, %25 ], [ %14, %10 ]
  %29 = phi i32 [ %32, %25 ], [ %11, %10 ]
  %30 = icmp sgt i8 %27, %28
  %31 = trunc i64 %26 to i32
  %32 = select i1 %30, i32 %31, i32 %29
  %33 = select i1 %30, i8 %27, i8 %28
  %34 = add nuw nsw i64 %26, 1
  %35 = getelementptr inbounds [11 x i8], [11 x i8]* %1, i64 0, i64 %34
  %36 = load i8, i8* %35, align 1, !tbaa !5
  %37 = icmp eq i8 %36, 0
  br i1 %37, label %16, label %25

38:                                               ; preds = %49, %20, %16
  %39 = load i8, i8* %4, align 1, !tbaa !5
  %40 = sext i8 %39 to i32
  %41 = call i32 @putchar(i32 %40)
  %42 = load i8, i8* %8, align 1, !tbaa !5
  %43 = sext i8 %42 to i32
  %44 = call i32 @putchar(i32 %43)
  %45 = load i8, i8* %9, align 1, !tbaa !5
  %46 = sext i8 %45 to i32
  %47 = call i32 @putchar(i32 %46)
  %48 = icmp slt i32 %19, %13
  br i1 %48, label %57, label %68

49:                                               ; preds = %20, %49
  %50 = phi i64 [ %55, %49 ], [ 1, %20 ]
  %51 = getelementptr inbounds [11 x i8], [11 x i8]* %1, i64 0, i64 %50
  %52 = load i8, i8* %51, align 1, !tbaa !5
  %53 = sext i8 %52 to i32
  %54 = call i32 @putchar(i32 %53)
  %55 = add nuw nsw i64 %50, 1
  %56 = icmp eq i64 %55, %21
  br i1 %56, label %38, label %49, !llvm.loop !8

57:                                               ; preds = %38
  %58 = sext i32 %19 to i64
  br label %59

59:                                               ; preds = %57, %59
  %60 = phi i64 [ %58, %57 ], [ %65, %59 ]
  %61 = getelementptr inbounds [11 x i8], [11 x i8]* %1, i64 0, i64 %60
  %62 = load i8, i8* %61, align 1, !tbaa !5
  %63 = sext i8 %62 to i32
  %64 = call i32 @putchar(i32 %63)
  %65 = add nsw i64 %60, 1
  %66 = trunc i64 %65 to i32
  %67 = icmp eq i32 %66, %13
  br i1 %67, label %68, label %59, !llvm.loop !10

68:                                               ; preds = %59, %38
  %69 = call i32 @putchar(i32 10)
  %70 = call i32 (i8*, ...) @__isoc99_scanf(i8* getelementptr inbounds ([6 x i8], [6 x i8]* @.str, i64 0, i64 0), i8* nonnull %3, i8* nonnull %4)
  %71 = icmp eq i32 %70, 2
  br i1 %71, label %10, label %72, !llvm.loop !11

72:                                               ; preds = %68, %0
  call void @llvm.lifetime.end.p0i8(i64 4, i8* nonnull %4) #5
  call void @llvm.lifetime.end.p0i8(i64 11, i8* nonnull %3) #5
  ret void
}

; Function Attrs: argmemonly mustprogress nofree nosync nounwind willreturn
declare void @llvm.lifetime.start.p0i8(i64 immarg, i8* nocapture) #1

; Function Attrs: nofree nounwind
declare noundef i32 @__isoc99_scanf(i8* nocapture noundef readonly, ...) local_unnamed_addr #2

; Function Attrs: argmemonly mustprogress nofree nounwind readonly willreturn
declare i64 @strlen(i8* nocapture) local_unnamed_addr #3

; Function Attrs: argmemonly mustprogress nofree nosync nounwind willreturn
declare void @llvm.lifetime.end.p0i8(i64 immarg, i8* nocapture) #1

; Function Attrs: nofree nounwind
declare noundef i32 @putchar(i32 noundef) local_unnamed_addr #4


!llvm.module.flags = !{!0, !1, !2, !3}
!llvm.ident = !{!4}

!0 = !{i32 1, !"wchar_size", i32 4}
!1 = !{i32 7, !"PIC Level", i32 2}
!2 = !{i32 7, !"PIE Level", i32 2}
!3 = !{i32 7, !"uwtable", i32 1}
!4 = !{!"clang version 13.0.0"}
!5 = !{!6, !6, i64 0}
!6 = !{!"omnipotent char", !7, i64 0}
!7 = !{!"Simple C/C++ TBAA"}
!8 = distinct !{!8, !9}
!9 = !{!"llvm.loop.mustprogress"}
!10 = distinct !{!10, !9}
!11 = distinct !{!11, !9}
